Certificate:
    Data:
        Version: 3 (0x2)
        Serial Number:
            ae:7b:ad:8c:07:5a:ea:f8
        Signature Algorithm: ecdsa-with-SHA256
        Issuer: C=ES, ST=MA, L=Tres Cantos, O=eProsima, OU=eProsima, CN=eProsima Main Test CA/emailAddress=mainca@eprosima.com
        Validity
            Not Before: May  7 15:07:07 2026 GMT
            Not After : May  7 15:08:47 2026 GMT
        Subject: C=ES, ST=MA, O=eProsima, OU=eProsima, CN=Modifiable Subscriber/emailAddress=mainsub@eprosima.com
        Subject Public Key Info:
            Public Key Algorithm: id-ecPublicKey
                Public-Key: (256 bit)
                pub:
                    04:b0:e7:25:13:a7:1a:a9:dd:6c:83:11:56:b9:03:
                    05:16:9c:95:02:c1:b9:80:0b:75:55:21:95:81:3a:
                    af:88:13:0f:38:a9:fb:65:1f:df:ad:67:76:22:90:
                    7c:61:b6:b7:85:b2:15:3a:d6:3d:65:c7:71:a2:cd:
                    3f:85:09:ae:fc
                ASN1 OID: prime256v1
                NIST CURVE: P-256
        X509v3 extensions:
            X509v3 Basic Constraints: 
                CA:FALSE
            X509v3 Subject Key Identifier: 
                2C:60:50:16:CD:92:E2:AA:07:2E:05:0F:72:71:AC:5D:0C:70:7C:E7
            X509v3 Authority Key Identifier: 
                DirName:/C=ES/ST=MA/L=Tres Cantos/O=eProsima/OU=eProsima/CN=eProsima Main Test CA/emailAddress=mainca@eprosima.com
                serial:B6:70:A6:0A:36:B3:1B:61
    Signature Algorithm: ecdsa-with-SHA256
    Signature Value:
        30:44:02:20:12:0d:b0:03:d8:17:10:94:fe:27:01:5d:a6:00:
        de:bc:ac:46:a7:1d:59:d4:43:c4:1d:d8:b1:68:8c:c6:1e:58:
        02:20:61:1c:03:af:cd:e9:01:06:fd:f3:4b:a3:fa:31:83:c2:
        2f:58:9f:10:c5:cb:19:7e:fa:12:bd:14:24:65:1a:10
-----BEGIN CERTIFICATE-----
MIIDATCCAqigAwIBAgIJAK57rYwHWur4MAoGCCqGSM49BAMCMIGaMQswCQYDVQQG
EwJFUzELMAkGA1UECAwCTUExFDASBgNVBAcMC1RyZXMgQ2FudG9zMREwDwYDVQQK
DAhlUHJvc2ltYTERMA8GA1UECwwIZVByb3NpbWExHjAcBgNVBAMMFWVQcm9zaW1h
IE1haW4gVGVzdCBDQTEiMCAGCSqGSIb3DQEJARYTbWFpbmNhQGVwcm9zaW1hLmNv
bTAeFw0yNjA1MDcxNTA3MDdaFw0yNjA1MDcxNTA4NDdaMIGFMQswCQYDVQQGEwJF
UzELMAkGA1UECAwCTUExETAPBgNVBAoMCGVQcm9zaW1hMREwDwYDVQQLDAhlUHJv
c2ltYTEeMBwGA1UEAwwVTW9kaWZpYWJsZSBTdWJzY3JpYmVyMSMwIQYJKoZIhvcN
AQkBFhRtYWluc3ViQGVwcm9zaW1hLmNvbTBZMBMGByqGSM49AgEGCCqGSM49AwEH
A0IABLDnJROnGqndbIMRVrkDBRaclQLBuYALdVUhlYE6r4gTDzip+2Uf361ndiKQ
fGG2t4WyFTrWPWXHcaLNP4UJrvyjgekwgeYwCQYDVR0TBAIwADAdBgNVHQ4EFgQU
LGBQFs2S4qoHLgUPcnGsXQxwfOcwgbkGA1UdIwSBsTCBrqGBoKSBnTCBmjELMAkG
A1UEBhMCRVMxCzAJBgNVBAgMAk1BMRQwEgYDVQQHDAtUcmVzIENhbnRvczERMA8G
A1UECgwIZVByb3NpbWExETAPBgNVBAsMCGVQcm9zaW1hMR4wHAYDVQQDDBVlUHJv
c2ltYSBNYWluIFRlc3QgQ0ExIjAgBgkqhkiG9w0BCQEWE21haW5jYUBlcHJvc2lt
YS5jb22CCQC2cKYKNrMbYTAKBggqhkjOPQQDAgNHADBEAiASDbAD2BcQlP4nAV2m
AN68rEanHVnUQ8Qd2LFojMYeWAIgYRwDr83pAQb980uj+jGDwi9YnxDFyxl++hK9
FCRlGhA=
-----END CERTIFICATE-----
